; ModuleID = 'bench/git/original/merge-ours.ll'
source_filename = "bench/git/original/merge-ours.ll"
target datalayout = "e-m:e-p270:32:32-p271:32:32-p272:64:64-i64:64-i128:128-f80:128-n8:16:32:64-S128"
target triple = "x86_64-pc-linux-gnu"

@builtin_merge_ours_usage = internal constant [45 x i8] c"git merge-ours <base>... -- HEAD <remote>...\00", align 16
@the_repository = external local_unnamed_addr global ptr, align 8
@.str = private unnamed_addr constant [18 x i8] c"read_cache failed\00", align 1
@.str.1 = private unnamed_addr constant [5 x i8] c"HEAD\00", align 1

; Function Attrs: nounwind uwtable
define dso_local range(i32 0, 3) i32 @cmd_merge_ours(i32 noundef %0, ptr noundef %1, ptr noundef readnone captures(none) %2, ptr noundef readnone captures(none) %3) local_unnamed_addr #0 {
  tail call void @show_usage_if_asked(i32 noundef %0, ptr noundef %1, ptr noundef nonnull @builtin_merge_ours_usage) #3
  %5 = load ptr, ptr @the_repository, align 8, !tbaa !4
  %6 = tail call i32 @repo_read_index(ptr noundef %5) #3
  %7 = icmp slt i32 %6, 0
  br i1 %7, label %8, label %9

8:                                                ; preds = %4
  tail call void (ptr, ...) @die_errno(ptr noundef nonnull @.str) #4
  unreachable

9:                                                ; preds = %4
  %10 = load ptr, ptr @the_repository, align 8, !tbaa !4
  %11 = tail call i32 @index_differs_from(ptr noundef %10, ptr noundef nonnull @.str.1, ptr noundef null, i32 noundef 0) #3
  %.not = icmp eq i32 %11, 0
  %. = select i1 %.not, i32 0, i32 2
  ret i32 %.
}

declare void @show_usage_if_asked(i32 noundef, ptr noundef, ptr noundef) local_unnamed_addr #1

declare i32 @repo_read_index(ptr noundef) local_unnamed_addr #1

; Function Attrs: noreturn
declare void @die_errno(ptr noundef, ...) local_unnamed_addr #2

declare i32 @index_differs_from(ptr noundef, ptr noundef, ptr noundef, i32 noundef) local_unnamed_addr #1


!llvm.module.flags = !{!0, !1, !2, !3}

!0 = !{i32 1, !"wchar_size", i32 4}
!1 = !{i32 8, !"PIC Level", i32 2}
!2 = !{i32 7, !"PIE Level", i32 2}
!3 = !{i32 7, !"uwtable", i32 2}
!4 = !{!5, !5, i64 0}
!5 = !{!"p1 _ZTS10repository", !6, i64 0}
!6 = !{!"any pointer", !7, i64 0}
!7 = !{!"omnipotent char", !8, i64 0}
!8 = !{!"Simple C/C++ TBAA"}
